target datalayout = "e-m:e-p270:32:32-p271:32:32-p272:64:64-i64:64-i128:128-f80:128-n8:16:32:64-S128"
target triple = "x86_64-pc-linux-gnu"

%struct.config_generic = type { ptr, i32, i32, ptr, ptr, i32, i32, i32, i32, i32, i32, i32, i32, i32, ptr, ptr, %struct.dlist_node, %struct.slist_node, %struct.slist_node, ptr, ptr, i32 }
%struct.dlist_node = type { ptr, ptr }
%struct.slist_node = type { ptr }
%struct.slist_head = type { %struct.slist_node }
%struct.HASH_SEQ_STATUS = type { ptr, i32, ptr, i8, i32 }
%struct.GUCHashEntry = type { ptr, ptr }

@guc_hashtab = internal global ptr null, align 8
@.str.3 = private unnamed_addr constant [6 x i8] c"guc.c\00", align 1
@GUCMemoryContext = internal global ptr null, align 8
@guc_report_list = internal global %struct.slist_head zeroinitializer, align 8
@guc_stack_list = internal global %struct.slist_head zeroinitializer, align 8
@.str.87 = private unnamed_addr constant [55 x i8] c"invalid configuration parameter name \22%s\22, removing it\00", align 1
@.str.88 = private unnamed_addr constant [31 x i8] c"\22%s\22 is now a reserved prefix.\00", align 1
@__func__.MarkGUCPrefixReserved = private unnamed_addr constant [22 x i8] c"MarkGUCPrefixReserved\00", align 1
@reserved_class_prefix = internal global ptr null, align 8
@CurrentMemoryContext = external global ptr, align 8

; Function Attrs: inlinehint nounwind uwtable
define internal void @dlist_delete(ptr noundef %0) #10 {
  %2 = alloca ptr, align 8
  store ptr %0, ptr %2, align 8
  %3 = load ptr, ptr %2, align 8
  %4 = getelementptr inbounds nuw %struct.dlist_node, ptr %3, i32 0, i32 1
  %5 = load ptr, ptr %4, align 8
  %6 = load ptr, ptr %2, align 8
  %7 = getelementptr inbounds nuw %struct.dlist_node, ptr %6, i32 0, i32 0
  %8 = load ptr, ptr %7, align 8
  %9 = getelementptr inbounds nuw %struct.dlist_node, ptr %8, i32 0, i32 1
  store ptr %5, ptr %9, align 8
  %10 = load ptr, ptr %2, align 8
  %11 = getelementptr inbounds nuw %struct.dlist_node, ptr %10, i32 0, i32 0
  %12 = load ptr, ptr %11, align 8
  %13 = load ptr, ptr %2, align 8
  %14 = getelementptr inbounds nuw %struct.dlist_node, ptr %13, i32 0, i32 1
  %15 = load ptr, ptr %14, align 8
  %16 = getelementptr inbounds nuw %struct.dlist_node, ptr %15, i32 0, i32 0
  store ptr %12, ptr %16, align 8
  ret void
}

; Function Attrs: inlinehint nounwind uwtable
define internal ptr @MemoryContextSwitchTo(ptr noundef %0) #10 {
  %2 = alloca ptr, align 8
  %3 = alloca ptr, align 8
  store ptr %0, ptr %2, align 8
  call void @llvm.lifetime.start.p0(i64 8, ptr %3) #16
  %4 = load ptr, ptr @CurrentMemoryContext, align 8
  store ptr %4, ptr %3, align 8
  %5 = load ptr, ptr %2, align 8
  store ptr %5, ptr @CurrentMemoryContext, align 8
  %6 = load ptr, ptr %3, align 8
  call void @llvm.lifetime.end.p0(i64 8, ptr %3) #16
  ret ptr %6
}

; Function Attrs: nounwind uwtable
define internal void @RemoveGUCFromLists(ptr noundef %0) #0 {
  %2 = alloca ptr, align 8
  store ptr %0, ptr %2, align 8
  %3 = load ptr, ptr %2, align 8
  %4 = getelementptr inbounds nuw %struct.config_generic, ptr %3, i32 0, i32 8
  %5 = load i32, ptr %4, align 4
  %6 = icmp ne i32 %5, 0
  br i1 %6, label %7, label %10

7:                                                ; preds = %1
  %8 = load ptr, ptr %2, align 8
  %9 = getelementptr inbounds nuw %struct.config_generic, ptr %8, i32 0, i32 16
  call void @dlist_delete(ptr noundef %9)
  br label %10

10:                                               ; preds = %7, %1
  %11 = load ptr, ptr %2, align 8
  %12 = getelementptr inbounds nuw %struct.config_generic, ptr %11, i32 0, i32 14
  %13 = load ptr, ptr %12, align 8
  %14 = icmp ne ptr %13, null
  br i1 %14, label %15, label %18

15:                                               ; preds = %10
  %16 = load ptr, ptr %2, align 8
  %17 = getelementptr inbounds nuw %struct.config_generic, ptr %16, i32 0, i32 17
  call void @slist_delete(ptr noundef @guc_stack_list, ptr noundef %17)
  br label %18

18:                                               ; preds = %15, %10
  %19 = load ptr, ptr %2, align 8
  %20 = getelementptr inbounds nuw %struct.config_generic, ptr %19, i32 0, i32 7
  %21 = load i32, ptr %20, align 8
  %22 = and i32 %21, 4
  %23 = icmp ne i32 %22, 0
  br i1 %23, label %24, label %27

24:                                               ; preds = %18
  %25 = load ptr, ptr %2, align 8
  %26 = getelementptr inbounds nuw %struct.config_generic, ptr %25, i32 0, i32 18
  call void @slist_delete(ptr noundef @guc_report_list, ptr noundef %26)
  br label %27

27:                                               ; preds = %24, %18
  ret void
}

; Function Attrs: nounwind uwtable
define dso_local void @MarkGUCPrefixReserved(ptr noundef %0) #0 {
  %2 = alloca ptr, align 8
  %3 = alloca i32, align 4
  %4 = alloca %struct.HASH_SEQ_STATUS, align 8
  %5 = alloca ptr, align 8
  %6 = alloca ptr, align 8
  %7 = alloca ptr, align 8
  store ptr %0, ptr %2, align 8
  call void @llvm.lifetime.start.p0(i64 4, ptr %3) #16
  %8 = load ptr, ptr %2, align 8
  %9 = call i64 @strlen(ptr noundef %8) #17
  %10 = trunc i64 %9 to i32
  store i32 %10, ptr %3, align 4
  call void @llvm.lifetime.start.p0(i64 32, ptr %4) #16
  call void @llvm.lifetime.start.p0(i64 8, ptr %5) #16
  call void @llvm.lifetime.start.p0(i64 8, ptr %6) #16
  %11 = load ptr, ptr @guc_hashtab, align 8
  call void @hash_seq_init(ptr noundef %4, ptr noundef %11)
  br label %12

12:                                               ; preds = %65, %1
  %13 = call ptr @hash_seq_search(ptr noundef %4)
  store ptr %13, ptr %5, align 8
  %14 = icmp ne ptr %13, null
  br i1 %14, label %15, label %66

15:                                               ; preds = %12
  call void @llvm.lifetime.start.p0(i64 8, ptr %7) #16
  %16 = load ptr, ptr %5, align 8
  %17 = getelementptr inbounds nuw %struct.GUCHashEntry, ptr %16, i32 0, i32 1
  %18 = load ptr, ptr %17, align 8
  store ptr %18, ptr %7, align 8
  %19 = load ptr, ptr %7, align 8
  %20 = getelementptr inbounds nuw %struct.config_generic, ptr %19, i32 0, i32 5
  %21 = load i32, ptr %20, align 8
  %22 = and i32 %21, 512
  %23 = icmp ne i32 %22, 0
  br i1 %23, label %24, label %65

24:                                               ; preds = %15
  %25 = load ptr, ptr %2, align 8
  %26 = load ptr, ptr %7, align 8
  %27 = getelementptr inbounds nuw %struct.config_generic, ptr %26, i32 0, i32 0
  %28 = load ptr, ptr %27, align 8
  %29 = load i32, ptr %3, align 4
  %30 = sext i32 %29 to i64
  %31 = call i32 @strncmp(ptr noundef %25, ptr noundef %28, i64 noundef %30) #17
  %32 = icmp eq i32 %31, 0
  br i1 %32, label %33, label %65

33:                                               ; preds = %24
  %34 = load ptr, ptr %7, align 8
  %35 = getelementptr inbounds nuw %struct.config_generic, ptr %34, i32 0, i32 0
  %36 = load ptr, ptr %35, align 8
  %37 = load i32, ptr %3, align 4
  %38 = sext i32 %37 to i64
  %39 = getelementptr inbounds i8, ptr %36, i64 %38
  %40 = load i8, ptr %39, align 1
  %41 = sext i8 %40 to i32
  %42 = icmp eq i32 %41, 46
  br i1 %42, label %43, label %65

43:                                               ; preds = %33
  br label %44

44:                                               ; preds = %43
  br i1 false, label %45, label %47

45:                                               ; preds = %44
  %46 = call zeroext i1 @errstart_cold(i32 noundef 19, ptr noundef null) #18
  br i1 %46, label %49, label %57

47:                                               ; preds = %44
  %48 = call zeroext i1 @errstart(i32 noundef 19, ptr noundef null)
  br i1 %48, label %49, label %57

49:                                               ; preds = %47, %45
  %50 = call i32 @errcode(i32 noundef 33579140)
  %51 = load ptr, ptr %7, align 8
  %52 = getelementptr inbounds nuw %struct.config_generic, ptr %51, i32 0, i32 0
  %53 = load ptr, ptr %52, align 8
  %54 = call i32 (ptr, ...) @errmsg(ptr noundef @.str.87, ptr noundef %53)
  %55 = load ptr, ptr %2, align 8
  %56 = call i32 (ptr, ...) @errdetail(ptr noundef @.str.88, ptr noundef %55)
  call void @errfinish(ptr noundef @.str.3, i32 noundef 5306, ptr noundef @__func__.MarkGUCPrefixReserved)
  br label %57

57:                                               ; preds = %49, %47, %45
  br label %58

58:                                               ; preds = %57
  br label %59

59:                                               ; preds = %58
  %60 = load ptr, ptr @guc_hashtab, align 8
  %61 = load ptr, ptr %7, align 8
  %62 = getelementptr inbounds nuw %struct.config_generic, ptr %61, i32 0, i32 0
  %63 = call ptr @hash_search(ptr noundef %60, ptr noundef %62, i32 noundef 2, ptr noundef null)
  %64 = load ptr, ptr %7, align 8
  call void @RemoveGUCFromLists(ptr noundef %64)
  br label %65

65:                                               ; preds = %59, %33, %24, %15
  call void @llvm.lifetime.end.p0(i64 8, ptr %7) #16
  br label %12, !llvm.loop !55

66:                                               ; preds = %12
  %67 = load ptr, ptr @GUCMemoryContext, align 8
  %68 = call ptr @MemoryContextSwitchTo(ptr noundef %67)
  store ptr %68, ptr %6, align 8
  %69 = load ptr, ptr @reserved_class_prefix, align 8
  %70 = load ptr, ptr %2, align 8
  %71 = call ptr @pstrdup(ptr noundef %70)
  %72 = call ptr @lappend(ptr noundef %69, ptr noundef %71)
  store ptr %72, ptr @reserved_class_prefix, align 8
  %73 = load ptr, ptr %6, align 8
  %74 = call ptr @MemoryContextSwitchTo(ptr noundef %73)
  call void @llvm.lifetime.end.p0(i64 8, ptr %6) #16
  call void @llvm.lifetime.end.p0(i64 8, ptr %5) #16
  call void @llvm.lifetime.end.p0(i64 32, ptr %4) #16
  call void @llvm.lifetime.end.p0(i64 4, ptr %3) #16
  ret void
}