; Function Attrs: nounwind uwtable
define dso_local void @MarkGUCPrefixReserved(ptr noundef %0) local_unnamed_addr #0 {
  %2 = alloca %struct.HASH_SEQ_STATUS, align 8
  %3 = tail call i64 @strlen(ptr noundef nonnull dereferenceable(1) %0) #30
  call void @llvm.lifetime.start.p0(i64 32, ptr nonnull %2) #29
  %4 = load ptr, ptr @guc_hashtab, align 8
  call void @hash_seq_init(ptr noundef nonnull %2, ptr noundef %4) #29
  %5 = call ptr @hash_seq_search(ptr noundef nonnull %2) #29
  %.not14 = icmp eq ptr %5, null
  br i1 %.not14, label %._crit_edge, label %.lr.ph

.lr.ph:                                           ; preds = %1
  %sext = shl i64 %3, 32
  %6 = ashr exact i64 %sext, 32
  br label %7

7:                                                ; preds = %.lr.ph, %RemoveGUCFromLists.exit
  %8 = phi ptr [ %5, %.lr.ph ], [ %52, %RemoveGUCFromLists.exit ]
  %9 = getelementptr inbounds nuw i8, ptr %8, i64 8
  %10 = load ptr, ptr %9, align 8
  %11 = getelementptr inbounds nuw i8, ptr %10, i64 32
  %12 = load i32, ptr %11, align 8
  %13 = and i32 %12, 512
  %.not13 = icmp eq i32 %13, 0
  br i1 %.not13, label %RemoveGUCFromLists.exit, label %14

14:                                               ; preds = %7
  %15 = load ptr, ptr %10, align 8
  %16 = call i32 @strncmp(ptr noundef nonnull %0, ptr noundef %15, i64 noundef %6) #30
  %17 = icmp eq i32 %16, 0
  br i1 %17, label %18, label %RemoveGUCFromLists.exit

18:                                               ; preds = %14
  %19 = getelementptr inbounds i8, ptr %15, i64 %6
  %20 = load i8, ptr %19, align 1
  %21 = icmp eq i8 %20, 46
  br i1 %21, label %22, label %RemoveGUCFromLists.exit

22:                                               ; preds = %18
  %23 = call zeroext i1 @errstart(i32 noundef 19, ptr noundef null) #29
  br i1 %23, label %24, label %29

24:                                               ; preds = %22
  %25 = call i32 @errcode(i32 noundef 33579140) #29
  %26 = load ptr, ptr %10, align 8
  %27 = call i32 (ptr, ...) @errmsg(ptr noundef nonnull @.str.87, ptr noundef %26) #29
  %28 = call i32 (ptr, ...) @errdetail(ptr noundef nonnull @.str.88, ptr noundef nonnull %0) #29
  call void @errfinish(ptr noundef nonnull @.str.3, i32 noundef 5306, ptr noundef nonnull @__func__.MarkGUCPrefixReserved) #29
  br label %29

29:                                               ; preds = %24, %22
  %30 = load ptr, ptr @guc_hashtab, align 8
  %31 = call ptr @hash_search(ptr noundef %30, ptr noundef nonnull %10, i32 noundef 2, ptr noundef null) #29
  %32 = getelementptr inbounds nuw i8, ptr %10, i64 44
  %33 = load i32, ptr %32, align 4
  %.not.i = icmp eq i32 %33, 0
  br i1 %.not.i, label %41, label %34

34:                                               ; preds = %29
  %35 = getelementptr inbounds nuw i8, ptr %10, i64 88
  %36 = getelementptr inbounds nuw i8, ptr %10, i64 96
  %37 = load ptr, ptr %36, align 8
  %38 = load ptr, ptr %35, align 8
  %39 = getelementptr inbounds nuw i8, ptr %38, i64 8
  store ptr %37, ptr %39, align 8
  %40 = load ptr, ptr %35, align 8
  store ptr %40, ptr %37, align 8
  br label %41

41:                                               ; preds = %34, %29
  %42 = getelementptr inbounds nuw i8, ptr %10, i64 72
  %43 = load ptr, ptr %42, align 8
  %.not6.i = icmp eq ptr %43, null
  br i1 %.not6.i, label %46, label %44

44:                                               ; preds = %41
  %45 = getelementptr inbounds nuw i8, ptr %10, i64 104
  call void @slist_delete(ptr noundef nonnull @guc_stack_list, ptr noundef nonnull %45) #29
  br label %46

46:                                               ; preds = %44, %41
  %47 = getelementptr inbounds nuw i8, ptr %10, i64 40
  %48 = load i32, ptr %47, align 8
  %49 = and i32 %48, 4
  %.not7.i = icmp eq i32 %49, 0
  br i1 %.not7.i, label %RemoveGUCFromLists.exit, label %50

50:                                               ; preds = %46
  %51 = getelementptr inbounds nuw i8, ptr %10, i64 112
  call void @slist_delete(ptr noundef nonnull @guc_report_list, ptr noundef nonnull %51) #29
  br label %RemoveGUCFromLists.exit

RemoveGUCFromLists.exit:                          ; preds = %50, %46, %18, %14, %7
  %52 = call ptr @hash_seq_search(ptr noundef nonnull %2) #29
  %.not = icmp eq ptr %52, null
  br i1 %.not, label %._crit_edge, label %7, !llvm.loop !51

._crit_edge:                                      ; preds = %RemoveGUCFromLists.exit, %1
  %53 = load ptr, ptr @GUCMemoryContext, align 8
  %54 = load ptr, ptr @CurrentMemoryContext, align 8
  store ptr %53, ptr @CurrentMemoryContext, align 8
  %55 = load ptr, ptr @reserved_class_prefix, align 8
  %56 = call ptr @pstrdup(ptr noundef nonnull %0) #29
  %57 = call ptr @lappend(ptr noundef %55, ptr noundef %56) #29
  store ptr %57, ptr @reserved_class_prefix, align 8
  store ptr %54, ptr @CurrentMemoryContext, align 8
  call void @llvm.lifetime.end.p0(i64 32, ptr nonnull %2) #29
  ret void
}